; Function Attrs: nounwind sspstrong uwtable
define internal void @virtio_pci_save_config(ptr noundef %0, ptr noundef %1) #0 {
  %3 = getelementptr i8, ptr %0, i64 34160
  %.val = load ptr, ptr %3, align 8
  %.not.i = icmp eq ptr %.val, null
  br i1 %.not.i, label %virtio_bus_get_device.exit, label %4

4:                                                ; preds = %2
  %5 = getelementptr inbounds nuw i8, ptr %.val, i64 16
  %6 = load ptr, ptr %5, align 8
  br label %virtio_bus_get_device.exit

virtio_bus_get_device.exit:                       ; preds = %2, %4
  %7 = phi ptr [ %6, %4 ], [ null, %2 ]
  tail call void @pci_device_save(ptr noundef nonnull %0, ptr noundef %1) #15
  tail call void @msix_save(ptr noundef nonnull %0, ptr noundef %1) #15
  %8 = tail call i32 @msix_present(ptr noundef nonnull %0) #15
  %.not = icmp eq i32 %8, 0
  br i1 %.not, label %13, label %9

9:                                                ; preds = %virtio_bus_get_device.exit
  %10 = getelementptr inbounds nuw i8, ptr %7, i64 208
  %11 = load i16, ptr %10, align 8
  %12 = zext i16 %11 to i32
  tail call void @qemu_put_be16(ptr noundef %1, i32 noundef %12) #15
  br label %13

13:                                               ; preds = %9, %virtio_bus_get_device.exit
  ret void
}